; ModuleID = 'source-C-CXX/6/816.c'
source_filename = "source-C-CXX/6/816.c"
target datalayout = "e-m:e-p270:32:32-p271:32:32-p272:64:64-i64:64-f80:128-n8:16:32:64-S128"
target triple = "x86_64-pc-linux-gnu"

@.str = private unnamed_addr constant [3 x i8] c"%s\00", align 1

; Function Attrs: nounwind sspstrong uwtable
define dso_local i32 @main() local_unnamed_addr #0 {
  %1 = alloca [257 x i8], align 16
  %2 = alloca [257 x i8], align 16
  %3 = alloca [257 x i8], align 16
  %4 = getelementptr inbounds [257 x i8], [257 x i8]* %1, i64 0, i64 0
  call void @llvm.lifetime.start.p0i8(i64 257, i8* nonnull %4) #6
  %5 = getelementptr inbounds [257 x i8], [257 x i8]* %2, i64 0, i64 0
  call void @llvm.lifetime.start.p0i8(i64 257, i8* nonnull %5) #6
  %6 = getelementptr inbounds [257 x i8], [257 x i8]* %3, i64 0, i64 0
  call void @llvm.lifetime.start.p0i8(i64 257, i8* nonnull %6) #6
  %7 = call i32 (i8*, ...) bitcast (i32 (...)* @gets to i32 (i8*, ...)*)(i8* nonnull %4) #6
  %8 = call i32 (i8*, ...) bitcast (i32 (...)* @gets to i32 (i8*, ...)*)(i8* nonnull %5) #6
  %9 = call i32 (i8*, ...) bitcast (i32 (...)* @gets to i32 (i8*, ...)*)(i8* nonnull %6) #6
  %10 = call i64 @strlen(i8* noundef nonnull %4) #7
  %11 = trunc i64 %10 to i32
  %12 = call i64 @strlen(i8* noundef nonnull %5) #7
  %13 = trunc i64 %12 to i32
  %14 = add nsw i32 %13, -1
  %15 = icmp sgt i32 %11, 0
  br i1 %15, label %16, label %66

16:                                               ; preds = %0
  %17 = icmp sgt i32 %13, 0
  br i1 %17, label %21, label %18

18:                                               ; preds = %16
  %19 = call i32 (i8*, ...) @printf(i8* nonnull dereferenceable(1) getelementptr inbounds ([3 x i8], [3 x i8]* @.str, i64 0, i64 0), i8* nonnull %6)
  %20 = icmp slt i32 %13, %11
  br i1 %20, label %57, label %66

21:                                               ; preds = %16
  %22 = shl i64 %12, 32
  %23 = ashr exact i64 %22, 32
  %24 = and i64 %12, 4294967295
  br label %25

25:                                               ; preds = %21, %48
  %26 = phi i32 [ %50, %48 ], [ 1, %21 ]
  %27 = phi i32 [ %51, %48 ], [ 0, %21 ]
  %28 = sext i32 %27 to i64
  br label %34

29:                                               ; preds = %34
  %30 = icmp eq i64 %42, %24
  br i1 %30, label %53, label %34, !llvm.loop !5

31:                                               ; preds = %53
  %32 = call i32 (i8*, ...) @printf(i8* nonnull dereferenceable(1) getelementptr inbounds ([3 x i8], [3 x i8]* @.str, i64 0, i64 0), i8* nonnull %6)
  %33 = add nsw i32 %14, %27
  br label %48

34:                                               ; preds = %25, %29
  %35 = phi i64 [ 0, %25 ], [ %42, %29 ]
  %36 = add nsw i64 %35, %28
  %37 = getelementptr inbounds [257 x i8], [257 x i8]* %1, i64 0, i64 %36
  %38 = load i8, i8* %37, align 1, !tbaa !7
  %39 = getelementptr inbounds [257 x i8], [257 x i8]* %2, i64 0, i64 %35
  %40 = load i8, i8* %39, align 1, !tbaa !7
  %41 = icmp eq i8 %38, %40
  %42 = add nuw nsw i64 %35, 1
  br i1 %41, label %29, label %43

43:                                               ; preds = %34, %53
  %44 = getelementptr inbounds [257 x i8], [257 x i8]* %1, i64 0, i64 %28
  %45 = load i8, i8* %44, align 1, !tbaa !7
  %46 = sext i8 %45 to i32
  %47 = call i32 @putchar(i32 %46)
  br label %48

48:                                               ; preds = %43, %31
  %49 = phi i32 [ %33, %31 ], [ %27, %43 ]
  %50 = phi i32 [ 0, %31 ], [ %26, %43 ]
  %51 = add nsw i32 %49, 1
  %52 = icmp slt i32 %51, %11
  br i1 %52, label %25, label %66, !llvm.loop !10

53:                                               ; preds = %29
  %54 = icmp sge i64 %42, %23
  %55 = icmp ne i32 %26, 0
  %56 = select i1 %55, i1 %54, i1 false
  br i1 %56, label %31, label %43

57:                                               ; preds = %18, %57
  %58 = phi i32 [ %64, %57 ], [ %13, %18 ]
  %59 = sext i32 %58 to i64
  %60 = getelementptr inbounds [257 x i8], [257 x i8]* %1, i64 0, i64 %59
  %61 = load i8, i8* %60, align 1, !tbaa !7
  %62 = sext i8 %61 to i32
  %63 = call i32 @putchar(i32 %62)
  %64 = add nsw i32 %58, 1
  %65 = icmp slt i32 %64, %11
  br i1 %65, label %57, label %66, !llvm.loop !11

66:                                               ; preds = %18, %57, %48, %0
  call void @llvm.lifetime.end.p0i8(i64 257, i8* nonnull %6) #6
  call void @llvm.lifetime.end.p0i8(i64 257, i8* nonnull %5) #6
  call void @llvm.lifetime.end.p0i8(i64 257, i8* nonnull %4) #6
  ret i32 0
}

; Function Attrs: argmemonly mustprogress nofree nosync nounwind willreturn
declare void @llvm.lifetime.start.p0i8(i64 immarg, i8* nocapture) #1

declare i32 @gets(...) local_unnamed_addr #2

; Function Attrs: argmemonly mustprogress nofree nounwind readonly willreturn
declare i64 @strlen(i8* nocapture) local_unnamed_addr #3

; Function Attrs: nofree nounwind
declare noundef i32 @printf(i8* nocapture noundef readonly, ...) local_unnamed_addr #4

; Function Attrs: argmemonly mustprogress nofree nosync nounwind willreturn
declare void @llvm.lifetime.end.p0i8(i64 immarg, i8* nocapture) #1

; Function Attrs: nofree nounwind
declare noundef i32 @putchar(i32 noundef) local_unnamed_addr #5


!llvm.module.flags = !{!0, !1, !2, !3}
!llvm.ident = !{!4}

!0 = !{i32 1, !"wchar_size", i32 4}
!1 = !{i32 7, !"PIC Level", i32 2}
!2 = !{i32 7, !"PIE Level", i32 2}
!3 = !{i32 7, !"uwtable", i32 1}
!4 = !{!"clang version 13.0.0"}
!5 = distinct !{!5, !6}
!6 = !{!"llvm.loop.mustprogress"}
!7 = !{!8, !8, i64 0}
!8 = !{!"omnipotent char", !9, i64 0}
!9 = !{!"Simple C/C++ TBAA"}
!10 = distinct !{!10, !6}
!11 = distinct !{!11, !6, !12}
!12 = !{!"llvm.loop.peeled.count", i32 1}
